target datalayout = "e-m:e-p270:32:32-p271:32:32-p272:64:64-i64:64-i128:128-f80:128-n8:16:32:64-S128"
target triple = "x86_64-pc-linux-gnu"

%"class.llvm::SmallVectorBase" = type { ptr, i32, i32 }
%"struct.(anonymous namespace)::NoTTIImpl" = type { %"class.llvm::TargetTransformInfoImplCRTPBase" }
%"class.llvm::TargetTransformInfoImplCRTPBase" = type { %"class.llvm::TargetTransformInfoImplBase" }
%"class.llvm::TargetTransformInfoImplBase" = type { ptr }
%"class.llvm::TargetTransformInfo::Model" = type { %"class.llvm::TargetTransformInfo::Concept", %"struct.(anonymous namespace)::NoTTIImpl" }
%"class.llvm::TargetTransformInfo::Concept" = type { ptr }
%"struct.llvm::TargetTransformInfo::MemCmpExpansionOptions" = type { i32, %"class.llvm::SmallVector.181", i32, i8, %"class.llvm::SmallVector.205" }
%"class.llvm::SmallVector.181" = type { %"class.llvm::SmallVectorImpl.182", %"struct.llvm::SmallVectorStorage.185" }
%"class.llvm::SmallVectorImpl.182" = type { %"class.llvm::SmallVectorTemplateBase.183" }
%"class.llvm::SmallVectorTemplateBase.183" = type { %"class.llvm::SmallVectorTemplateCommon.184" }
%"class.llvm::SmallVectorTemplateCommon.184" = type { %"class.llvm::SmallVectorBase" }
%"struct.llvm::SmallVectorStorage.185" = type { [32 x i8] }
%"class.llvm::SmallVector.205" = type { %"class.llvm::SmallVectorImpl.182", %"struct.llvm::SmallVectorStorage.206" }
%"struct.llvm::SmallVectorStorage.206" = type { [16 x i8] }

; Function Attrs: mustprogress nounwind uwtable
define linkonce_odr hidden noundef ptr @_ZNK4llvm25SmallVectorTemplateCommonIjvE10getFirstElEv(ptr noundef nonnull align 8 dereferenceable(16) %0) #1 comdat align 2 {
  %2 = alloca ptr, align 8
  store ptr %0, ptr %2, align 8
  %3 = load ptr, ptr %2, align 8
  %4 = getelementptr inbounds i8, ptr %3, i64 16
  ret ptr %4
}

; Function Attrs: mustprogress nounwind uwtable
define linkonce_odr hidden void @_ZN4llvm25SmallVectorTemplateCommonIjvEC2Em(ptr noundef nonnull align 8 dereferenceable(16) %0, i64 noundef %1) unnamed_addr #1 comdat align 2 {
  %3 = alloca ptr, align 8
  %4 = alloca i64, align 8
  store ptr %0, ptr %3, align 8
  store i64 %1, ptr %4, align 8
  %5 = load ptr, ptr %3, align 8
  %6 = call noundef ptr @_ZNK4llvm25SmallVectorTemplateCommonIjvE10getFirstElEv(ptr noundef nonnull align 8 dereferenceable(16) %5)
  %7 = load i64, ptr %4, align 8
  call void @_ZN4llvm15SmallVectorBaseIjEC2EPvm(ptr noundef nonnull align 8 dereferenceable(16) %5, ptr noundef %6, i64 noundef %7)
  ret void
}

; Function Attrs: mustprogress nounwind uwtable
define linkonce_odr hidden void @_ZN4llvm23SmallVectorTemplateBaseIjLb1EEC2Em(ptr noundef nonnull align 8 dereferenceable(16) %0, i64 noundef %1) unnamed_addr #1 comdat align 2 {
  %3 = alloca ptr, align 8
  %4 = alloca i64, align 8
  store ptr %0, ptr %3, align 8
  store i64 %1, ptr %4, align 8
  %5 = load ptr, ptr %3, align 8
  %6 = load i64, ptr %4, align 8
  call void @_ZN4llvm25SmallVectorTemplateCommonIjvEC2Em(ptr noundef nonnull align 8 dereferenceable(16) %5, i64 noundef %6)
  ret void
}

; Function Attrs: mustprogress nounwind uwtable
define linkonce_odr hidden void @_ZN4llvm15SmallVectorImplIjEC2Ej(ptr noundef nonnull align 8 dereferenceable(16) %0, i32 noundef %1) unnamed_addr #1 comdat align 2 {
  %3 = alloca ptr, align 8
  %4 = alloca i32, align 4
  store ptr %0, ptr %3, align 8
  store i32 %1, ptr %4, align 4
  %5 = load ptr, ptr %3, align 8
  %6 = load i32, ptr %4, align 4
  %7 = zext i32 %6 to i64
  call void @_ZN4llvm23SmallVectorTemplateBaseIjLb1EEC2Em(ptr noundef nonnull align 8 dereferenceable(16) %5, i64 noundef %7)
  ret void
}

; Function Attrs: mustprogress nounwind uwtable
define linkonce_odr hidden void @_ZN4llvm11SmallVectorIjLj4EEC2Ev(ptr noundef nonnull align 8 dereferenceable(32) %0) unnamed_addr #1 comdat align 2 {
  %2 = alloca ptr, align 8
  store ptr %0, ptr %2, align 8
  %3 = load ptr, ptr %2, align 8
  call void @_ZN4llvm15SmallVectorImplIjEC2Ej(ptr noundef nonnull align 8 dereferenceable(16) %3, i32 noundef 4)
  ret void
}

; Function Attrs: mustprogress nounwind uwtable
define linkonce_odr hidden void @_ZN4llvm11SmallVectorIjLj8EEC2Ev(ptr noundef nonnull align 8 dereferenceable(48) %0) unnamed_addr #1 comdat align 2 {
  %2 = alloca ptr, align 8
  store ptr %0, ptr %2, align 8
  %3 = load ptr, ptr %2, align 8
  call void @_ZN4llvm15SmallVectorImplIjEC2Ej(ptr noundef nonnull align 8 dereferenceable(16) %3, i32 noundef 8)
  ret void
}

; Function Attrs: mustprogress nounwind uwtable
define linkonce_odr hidden void @_ZNK4llvm27TargetTransformInfoImplBase21enableMemCmpExpansionEbb(ptr dead_on_unwind noalias writable sret(%"struct.llvm::TargetTransformInfo::MemCmpExpansionOptions") align 8 %0, ptr noundef nonnull align 8 dereferenceable(8) %1, i1 noundef zeroext %2, i1 noundef zeroext %3) #1 comdat align 2 {
  %5 = alloca ptr, align 8
  %6 = alloca ptr, align 8
  %7 = alloca i8, align 1
  %8 = alloca i8, align 1
  store ptr %0, ptr %5, align 8
  store ptr %1, ptr %6, align 8
  %9 = zext i1 %2 to i8
  store i8 %9, ptr %7, align 1
  %10 = zext i1 %3 to i8
  store i8 %10, ptr %8, align 1
  %11 = getelementptr inbounds nuw %"struct.llvm::TargetTransformInfo::MemCmpExpansionOptions", ptr %0, i32 0, i32 0
  store i32 0, ptr %11, align 8
  %12 = getelementptr inbounds nuw %"struct.llvm::TargetTransformInfo::MemCmpExpansionOptions", ptr %0, i32 0, i32 1
  call void @_ZN4llvm11SmallVectorIjLj8EEC2Ev(ptr noundef nonnull align 8 dereferenceable(48) %12)
  %13 = getelementptr inbounds nuw %"struct.llvm::TargetTransformInfo::MemCmpExpansionOptions", ptr %0, i32 0, i32 2
  store i32 1, ptr %13, align 8
  %14 = getelementptr inbounds nuw %"struct.llvm::TargetTransformInfo::MemCmpExpansionOptions", ptr %0, i32 0, i32 3
  store i8 0, ptr %14, align 4
  %15 = getelementptr inbounds nuw %"struct.llvm::TargetTransformInfo::MemCmpExpansionOptions", ptr %0, i32 0, i32 4
  call void @_ZN4llvm11SmallVectorIjLj4EEC2Ev(ptr noundef nonnull align 8 dereferenceable(32) %15)
  ret void
}

; Function Attrs: mustprogress nounwind uwtable
define internal void @_ZNK4llvm19TargetTransformInfo5ModelIN12_GLOBAL__N_19NoTTIImplEE21enableMemCmpExpansionEbb(ptr dead_on_unwind noalias writable sret(%"struct.llvm::TargetTransformInfo::MemCmpExpansionOptions") align 8 %0, ptr noundef nonnull align 8 dereferenceable(16) %1, i1 noundef zeroext %2, i1 noundef zeroext %3) unnamed_addr #1 align 2 {
  %5 = alloca ptr, align 8
  %6 = alloca ptr, align 8
  %7 = alloca i8, align 1
  %8 = alloca i8, align 1
  store ptr %0, ptr %5, align 8
  store ptr %1, ptr %6, align 8
  %9 = zext i1 %2 to i8
  store i8 %9, ptr %7, align 1
  %10 = zext i1 %3 to i8
  store i8 %10, ptr %8, align 1
  %11 = load ptr, ptr %6, align 8
  %12 = getelementptr inbounds nuw %"class.llvm::TargetTransformInfo::Model", ptr %11, i32 0, i32 1
  %13 = load i8, ptr %7, align 1
  %14 = trunc i8 %13 to i1
  %15 = load i8, ptr %8, align 1
  %16 = trunc i8 %15 to i1
  call void @_ZNK4llvm27TargetTransformInfoImplBase21enableMemCmpExpansionEbb(ptr dead_on_unwind writable sret(%"struct.llvm::TargetTransformInfo::MemCmpExpansionOptions") align 8 %0, ptr noundef nonnull align 8 dereferenceable(8) %12, i1 noundef zeroext %14, i1 noundef zeroext %16)
  ret void
}