; Function Attrs: mustprogress nounwind uwtable
define internal void @_ZNK4llvm19TargetTransformInfo5ModelIN12_GLOBAL__N_19NoTTIImplEE21enableMemCmpExpansionEbb(ptr dead_on_unwind noalias writable sret(%"struct.llvm::TargetTransformInfo::MemCmpExpansionOptions") align 8 %0, ptr nocapture nonnull readnone align 8 %1, i1 zeroext %2, i1 zeroext %3) unnamed_addr #0 align 2 {
  store i32 0, ptr %0, align 8, !alias.scope !47
  %5 = getelementptr inbounds nuw i8, ptr %0, i64 8
  %6 = getelementptr inbounds i8, ptr %0, i64 24
  tail call void @_ZN4llvm15SmallVectorBaseIjEC2EPvm(ptr noundef nonnull align 8 dereferenceable(16) %5, ptr noundef nonnull %6, i64 noundef 8) #25
  %7 = getelementptr inbounds nuw i8, ptr %0, i64 56
  store i32 1, ptr %7, align 8, !alias.scope !47
  %8 = getelementptr inbounds nuw i8, ptr %0, i64 60
  store i8 0, ptr %8, align 4, !alias.scope !47
  %9 = getelementptr inbounds nuw i8, ptr %0, i64 64
  %10 = getelementptr inbounds i8, ptr %0, i64 80
  tail call void @_ZN4llvm15SmallVectorBaseIjEC2EPvm(ptr noundef nonnull align 8 dereferenceable(16) %9, ptr noundef nonnull %10, i64 noundef 4) #25
  ret void
}